; Function Attrs: mustprogress uwtable
define noundef ptr @_ZN32pxrInternal_v0_24__pxrReserved__17Sdf_ChangeManager16_OpenChangeBlockEPKNS_14SdfChangeBlockE(ptr noundef nonnull align 8 dereferenceable(104) %0, ptr noundef %1) local_unnamed_addr #0 align 2 {
  %3 = alloca i8, align 1
  call void @llvm.lifetime.start.p0(i64 1, ptr nonnull %3)
  %4 = call noundef nonnull align 8 dereferenceable(56) ptr @_ZN3tbb6detail2d18ets_baseILNS1_18ets_key_usage_typeE1EE12table_lookupERb(ptr noundef nonnull align 8 dereferenceable(104) %0, ptr noundef nonnull align 1 dereferenceable(1) %3)
  call void @llvm.lifetime.end.p0(i64 1, ptr nonnull %3)
  %5 = getelementptr inbounds nuw i8, ptr %4, i64 24
  %6 = load ptr, ptr %5, align 8
  %.not = icmp eq ptr %6, null
  br i1 %.not, label %7, label %8

7:                                                ; preds = %2
  store ptr %1, ptr %5, align 8
  br label %8

8:                                                ; preds = %2, %7
  %.0 = phi ptr [ %4, %7 ], [ null, %2 ]
  ret ptr %.0
}